target datalayout = "e-m:e-p270:32:32-p271:32:32-p272:64:64-i64:64-i128:128-f80:128-n8:16:32:64-S128"
target triple = "x86_64-pc-linux-gnu"

%struct.cbb_buffer_st = type { ptr, i64, i64, i8 }
%struct.cbb_st = type { ptr, ptr, i64, i8, i8, i8 }

; Function Attrs: nounwind uwtable
define hidden void @CBB_discard_child(ptr noundef %0) #0 {
  %2 = alloca ptr, align 8
  store ptr %0, ptr %2, align 8, !tbaa !6
  %3 = load ptr, ptr %2, align 8, !tbaa !6
  %4 = getelementptr inbounds nuw %struct.cbb_st, ptr %3, i32 0, i32 1
  %5 = load ptr, ptr %4, align 8, !tbaa !29
  %6 = icmp eq ptr %5, null
  br i1 %6, label %7, label %8

7:                                                ; preds = %1
  br label %24

8:                                                ; preds = %1
  %9 = load ptr, ptr %2, align 8, !tbaa !6
  %10 = getelementptr inbounds nuw %struct.cbb_st, ptr %9, i32 0, i32 1
  %11 = load ptr, ptr %10, align 8, !tbaa !29
  %12 = getelementptr inbounds nuw %struct.cbb_st, ptr %11, i32 0, i32 2
  %13 = load i64, ptr %12, align 8, !tbaa !31
  %14 = load ptr, ptr %2, align 8, !tbaa !6
  %15 = getelementptr inbounds nuw %struct.cbb_st, ptr %14, i32 0, i32 0
  %16 = load ptr, ptr %15, align 8, !tbaa !22
  %17 = getelementptr inbounds nuw %struct.cbb_buffer_st, ptr %16, i32 0, i32 1
  store i64 %13, ptr %17, align 8, !tbaa !19
  %18 = load ptr, ptr %2, align 8, !tbaa !6
  %19 = getelementptr inbounds nuw %struct.cbb_st, ptr %18, i32 0, i32 1
  %20 = load ptr, ptr %19, align 8, !tbaa !29
  %21 = getelementptr inbounds nuw %struct.cbb_st, ptr %20, i32 0, i32 0
  store ptr null, ptr %21, align 8, !tbaa !22
  %22 = load ptr, ptr %2, align 8, !tbaa !6
  %23 = getelementptr inbounds nuw %struct.cbb_st, ptr %22, i32 0, i32 1
  store ptr null, ptr %23, align 8, !tbaa !29
  br label %24

24:                                               ; preds = %8, %7
  ret void
}