; Function Attrs: mustprogress nofree norecurse nosync nounwind willreturn memory(readwrite, inaccessiblemem: none) uwtable
define hidden void @CBB_discard_child(ptr noundef captures(none) %0) local_unnamed_addr #11 {
  %2 = getelementptr inbounds nuw i8, ptr %0, i64 8
  %3 = load ptr, ptr %2, align 8, !tbaa !23
  %4 = icmp eq ptr %3, null
  br i1 %4, label %10, label %5

5:                                                ; preds = %1
  %6 = getelementptr inbounds nuw i8, ptr %3, i64 16
  %7 = load i64, ptr %6, align 8, !tbaa !25
  %8 = load ptr, ptr %0, align 8, !tbaa !16
  %9 = getelementptr inbounds nuw i8, ptr %8, i64 8
  store i64 %7, ptr %9, align 8, !tbaa !13
  store ptr null, ptr %3, align 8, !tbaa !16
  store ptr null, ptr %2, align 8, !tbaa !23
  br label %10

10:                                               ; preds = %1, %5
  ret void
}